target datalayout = "e-m:e-p270:32:32-p271:32:32-p272:64:64-i64:64-i128:128-f80:128-n8:16:32:64-S128"
target triple = "x86_64-pc-linux-gnu"

%struct.TIME_t = type { i64 }
%struct.LZ4F_preferences_t = type { %struct.LZ4F_frameInfo_t, i32, i32, i32, [3 x i32] }
%struct.LZ4F_frameInfo_t = type { i32, i32, i32, i32, i64, i32, i32 }
%struct.cRess_t = type { ptr, i64, ptr, i64, ptr, %struct.LZ4F_preferences_t, ptr, ptr, ptr }

@g_displayLevel = internal global i32 0, align 4
@stderr = external global ptr, align 8
@.str.49 = private unnamed_addr constant [52 x i8] c"Done in %.2f s ==> %.2f MiB/s  (cpu load : %.0f%%)\0A\00", align 1

; Function Attrs: nounwind uwtable
define internal double @cpuTimeSpan_sec(double noundef %0) #0 {
  %2 = alloca double, align 8
  store double %0, ptr %2, align 8, !tbaa !35
  %3 = call double @cpuTime_sec()
  %4 = load double, ptr %2, align 8, !tbaa !35
  %5 = fsub double %3, %4
  ret double %5
}

; Function Attrs: nounwind uwtable
define internal void @LZ4IO_finalTimeDisplay(i64 %0, double noundef %1, i64 noundef %2) #0 {
  %4 = alloca %struct.TIME_t, align 8
  %5 = alloca double, align 8
  %6 = alloca i64, align 8
  %7 = alloca i64, align 8
  %8 = alloca double, align 8
  %9 = alloca double, align 8
  %10 = getelementptr inbounds nuw %struct.TIME_t, ptr %4, i32 0, i32 0
  store i64 %0, ptr %10, align 8
  store double %1, ptr %5, align 8, !tbaa !35
  store i64 %2, ptr %6, align 8, !tbaa !37
  call void @llvm.lifetime.start.p0(i64 8, ptr %7) #13
  %11 = getelementptr inbounds nuw %struct.TIME_t, ptr %4, i32 0, i32 0
  %12 = load i64, ptr %11, align 8
  %13 = call i64 @TIME_clockSpan_ns(i64 %12)
  store i64 %13, ptr %7, align 8, !tbaa !37
  call void @llvm.lifetime.start.p0(i64 8, ptr %8) #13
  %14 = load i64, ptr %7, align 8, !tbaa !37
  %15 = load i64, ptr %7, align 8, !tbaa !37
  %16 = icmp ne i64 %15, 0
  %17 = xor i1 %16, true
  %18 = zext i1 %17 to i32
  %19 = sext i32 %18 to i64
  %20 = add i64 %14, %19
  %21 = uitofp i64 %20 to double
  %22 = fdiv double %21, 1.000000e+09
  store double %22, ptr %8, align 8, !tbaa !35
  call void @llvm.lifetime.start.p0(i64 8, ptr %9) #13
  %23 = load double, ptr %5, align 8, !tbaa !35
  %24 = call double @cpuTimeSpan_sec(double noundef %23)
  store double %24, ptr %9, align 8, !tbaa !35
  %25 = load i32, ptr @g_displayLevel, align 4, !tbaa !9
  %26 = icmp sge i32 %25, 3
  br i1 %26, label %27, label %47

27:                                               ; preds = %3
  %28 = load ptr, ptr @stderr, align 8, !tbaa !11
  %29 = load double, ptr %8, align 8, !tbaa !35
  %30 = load i64, ptr %6, align 8, !tbaa !37
  %31 = uitofp i64 %30 to double
  %32 = load double, ptr %8, align 8, !tbaa !35
  %33 = fdiv double %31, %32
  %34 = fdiv double %33, 1.024000e+03
  %35 = fdiv double %34, 1.024000e+03
  %36 = load double, ptr %9, align 8, !tbaa !35
  %37 = load double, ptr %8, align 8, !tbaa !35
  %38 = fdiv double %36, %37
  %39 = fmul double %38, 1.000000e+02
  %40 = call i32 (ptr, ptr, ...) @fprintf(ptr noundef %28, ptr noundef @.str.49, double noundef %29, double noundef %35, double noundef %39) #13
  %41 = load i32, ptr @g_displayLevel, align 4, !tbaa !9
  %42 = icmp sge i32 %41, 4
  br i1 %42, label %43, label %46

43:                                               ; preds = %27
  %44 = load ptr, ptr @stderr, align 8, !tbaa !11
  %45 = call i32 @fflush(ptr noundef %44)
  br label %46

46:                                               ; preds = %43, %27
  br label %47

47:                                               ; preds = %46, %3
  call void @llvm.lifetime.end.p0(i64 8, ptr %9) #13
  call void @llvm.lifetime.end.p0(i64 8, ptr %8) #13
  call void @llvm.lifetime.end.p0(i64 8, ptr %7) #13
  ret void
}

; Function Attrs: nounwind uwtable
define internal i32 @LZ4IO_compressFilename_extRess(ptr noundef %0, ptr noundef %1, ptr noundef %2, ptr noundef %3, i32 noundef %4, ptr noundef %5) #0 {
  %7 = alloca ptr, align 8
  %8 = alloca ptr, align 8
  %9 = alloca ptr, align 8
  %10 = alloca ptr, align 8
  %11 = alloca i32, align 4
  %12 = alloca ptr, align 8
  store ptr %0, ptr %7, align 8, !tbaa !39
  store ptr %1, ptr %8, align 8, !tbaa !41
  store ptr %2, ptr %9, align 8, !tbaa !31
  store ptr %3, ptr %10, align 8, !tbaa !31
  store i32 %4, ptr %11, align 4, !tbaa !9
  store ptr %5, ptr %12, align 8, !tbaa !4
  %13 = load ptr, ptr %7, align 8, !tbaa !39
  %14 = load ptr, ptr %8, align 8, !tbaa !41
  %15 = load ptr, ptr %9, align 8, !tbaa !31
  %16 = load ptr, ptr %10, align 8, !tbaa !31
  %17 = load i32, ptr %11, align 4, !tbaa !9
  %18 = load ptr, ptr %12, align 8, !tbaa !4
  %19 = call i32 @LZ4IO_compressFilename_extRess_ST(ptr noundef %13, ptr noundef %14, ptr noundef %15, ptr noundef %16, i32 noundef %17, ptr noundef %18)
  ret i32 %19
}

; Function Attrs: nounwind uwtable
define internal double @cpuTime_sec() #0 {
  %1 = call i64 @clock() #13
  %2 = sitofp i64 %1 to double
  %3 = fdiv double %2, 1.000000e+06
  ret double %3
}

; Function Attrs: nounwind uwtable
define dso_local i32 @LZ4IO_compressFilename(ptr noundef %0, ptr noundef %1, i32 noundef %2, ptr noundef %3) #0 {
  %5 = alloca ptr, align 8
  %6 = alloca ptr, align 8
  %7 = alloca i32, align 4
  %8 = alloca ptr, align 8
  %9 = alloca %struct.TIME_t, align 8
  %10 = alloca double, align 8
  %11 = alloca %struct.cRess_t, align 8
  %12 = alloca i64, align 8
  %13 = alloca i32, align 4
  store ptr %0, ptr %5, align 8, !tbaa !31
  store ptr %1, ptr %6, align 8, !tbaa !31
  store i32 %2, ptr %7, align 4, !tbaa !9
  store ptr %3, ptr %8, align 8, !tbaa !4
  call void @llvm.lifetime.start.p0(i64 8, ptr %9) #13
  %14 = call i64 @TIME_getTime()
  %15 = getelementptr inbounds nuw %struct.TIME_t, ptr %9, i32 0, i32 0
  store i64 %14, ptr %15, align 8
  call void @llvm.lifetime.start.p0(i64 8, ptr %10) #13
  %16 = call double @cpuTime_sec()
  store double %16, ptr %10, align 8, !tbaa !35
  call void @llvm.lifetime.start.p0(i64 120, ptr %11) #13
  %17 = load ptr, ptr %8, align 8, !tbaa !4
  call void @LZ4IO_createCResources(ptr dead_on_unwind writable sret(%struct.cRess_t) align 8 %11, ptr noundef %17)
  call void @llvm.lifetime.start.p0(i64 8, ptr %12) #13
  call void @llvm.lifetime.start.p0(i64 4, ptr %13) #13
  %18 = load ptr, ptr %5, align 8, !tbaa !31
  %19 = load ptr, ptr %6, align 8, !tbaa !31
  %20 = load i32, ptr %7, align 4, !tbaa !9
  %21 = load ptr, ptr %8, align 8, !tbaa !4
  %22 = call i32 @LZ4IO_compressFilename_extRess(ptr noundef %12, ptr noundef %11, ptr noundef %18, ptr noundef %19, i32 noundef %20, ptr noundef %21)
  store i32 %22, ptr %13, align 4, !tbaa !9
  call void @LZ4IO_freeCResources(ptr noundef byval(%struct.cRess_t) align 8 %11)
  %23 = load double, ptr %10, align 8, !tbaa !35
  %24 = load i64, ptr %12, align 8, !tbaa !37
  %25 = getelementptr inbounds nuw %struct.TIME_t, ptr %9, i32 0, i32 0
  %26 = load i64, ptr %25, align 8
  call void @LZ4IO_finalTimeDisplay(i64 %26, double noundef %23, i64 noundef %24)
  %27 = load i32, ptr %13, align 4, !tbaa !9
  call void @llvm.lifetime.end.p0(i64 4, ptr %13) #13
  call void @llvm.lifetime.end.p0(i64 8, ptr %12) #13
  call void @llvm.lifetime.end.p0(i64 120, ptr %11) #13
  call void @llvm.lifetime.end.p0(i64 8, ptr %10) #13
  call void @llvm.lifetime.end.p0(i64 8, ptr %9) #13
  ret i32 %27
}