; Function Attrs: nounwind uwtable
define dso_local range(i32 0, 2) i32 @LZ4IO_compressFilename(ptr noundef %0, ptr noundef %1, i32 noundef %2, ptr noundef readonly captures(none) %3) local_unnamed_addr #11 {
  %5 = alloca %struct.cRess_t, align 8
  %6 = alloca i64, align 8
  %7 = tail call i64 @TIME_getTime() #24
  %8 = tail call i64 @clock() #24
  call void @llvm.lifetime.start.p0(i64 120, ptr nonnull %5) #24
  call fastcc void @LZ4IO_createCResources(ptr dead_on_unwind noalias writable align 8 %5, ptr noundef %3)
  call void @llvm.lifetime.start.p0(i64 8, ptr nonnull %6) #24
  %9 = call range(i32 0, 2) i32 @LZ4IO_compressFilename_extRess_ST(ptr noundef nonnull %6, ptr noundef nonnull readonly %5, ptr noundef %0, ptr noundef %1, i32 noundef %2, ptr noundef readonly %3)
  call fastcc void @LZ4IO_freeCResources(ptr noundef nonnull byval(%struct.cRess_t) align 8 %5)
  %10 = load i64, ptr %6, align 8, !tbaa !32
  %11 = call i64 @TIME_clockSpan_ns(i64 %7) #24
  %12 = call i64 @clock() #24
  %13 = load i32, ptr @g_displayLevel, align 4, !tbaa !4
  %14 = icmp sgt i32 %13, 2
  br i1 %14, label %15, label %LZ4IO_finalTimeDisplay.exit

15:                                               ; preds = %4
  %16 = sitofp i64 %8 to double
  %17 = fdiv double %16, 1.000000e+06
  %18 = sitofp i64 %12 to double
  %19 = fdiv double %18, 1.000000e+06
  %20 = fsub double %19, %17
  %21 = call i64 @llvm.umax.i64(i64 %11, i64 1)
  %22 = uitofp i64 %21 to double
  %23 = fdiv double %22, 1.000000e+09
  %24 = load ptr, ptr @stderr, align 8, !tbaa !8
  %25 = uitofp i64 %10 to double
  %26 = fdiv double %25, %23
  %27 = fmul double %26, 0x3F50000000000000
  %28 = fmul double %27, 0x3F50000000000000
  %29 = fdiv double %20, %23
  %30 = fmul double %29, 1.000000e+02
  %31 = call i32 (ptr, ptr, ...) @fprintf(ptr noundef %24, ptr noundef nonnull @.str.49, double noundef %23, double noundef %28, double noundef %30) #26
  %32 = load i32, ptr @g_displayLevel, align 4, !tbaa !4
  %33 = icmp sgt i32 %32, 3
  br i1 %33, label %34, label %LZ4IO_finalTimeDisplay.exit

34:                                               ; preds = %15
  %35 = load ptr, ptr @stderr, align 8, !tbaa !8
  %36 = call i32 @fflush(ptr noundef %35)
  br label %LZ4IO_finalTimeDisplay.exit

LZ4IO_finalTimeDisplay.exit:                      ; preds = %4, %15, %34
  call void @llvm.lifetime.end.p0(i64 8, ptr nonnull %6) #24
  call void @llvm.lifetime.end.p0(i64 120, ptr nonnull %5) #24
  ret i32 %9
}